target datalayout = "e-m:e-p270:32:32-p271:32:32-p272:64:64-i64:64-i128:128-f80:128-n8:16:32:64-S128"
target triple = "x86_64-pc-linux-gnu"

; Function Attrs: inlinehint nounwind sspstrong willreturn memory(none) uwtable
define internal zeroext i1 @RB_TEST(i64 noundef %0) #6 {
  %2 = alloca i64, align 8
  store i64 %0, ptr %2, align 8, !tbaa !14
  %3 = load i64, ptr %2, align 8, !tbaa !14
  %4 = and i64 %3, -5
  %5 = icmp ne i64 %4, 0
  ret i1 %5
}

; Function Attrs: nounwind sspstrong uwtable
define internal i64 @find_index_iter_i(i64 noundef %0, i64 noundef %1, i32 noundef %2, ptr noundef %3, i64 noundef %4) #0 {
  %6 = alloca i64, align 8
  %7 = alloca i64, align 8
  %8 = alloca i32, align 4
  %9 = alloca ptr, align 8
  %10 = alloca i64, align 8
  %11 = alloca ptr, align 8
  store i64 %0, ptr %6, align 8, !tbaa !14
  store i64 %1, ptr %7, align 8, !tbaa !14
  store i32 %2, ptr %8, align 4, !tbaa !7
  store ptr %3, ptr %9, align 8, !tbaa !11
  store i64 %4, ptr %10, align 8, !tbaa !14
  call void @llvm.lifetime.start.p0(i64 8, ptr %11) #22
  %12 = load i64, ptr %7, align 8, !tbaa !14
  %13 = inttoptr i64 %12 to ptr
  store ptr %13, ptr %11, align 8, !tbaa !34
  %14 = load i32, ptr %8, align 4, !tbaa !7
  %15 = load ptr, ptr %9, align 8, !tbaa !11
  %16 = call i64 @rb_yield_values2(i32 noundef %14, ptr noundef %15)
  %17 = call zeroext i1 @RB_TEST(i64 noundef %16) #25
  br i1 %17, label %18, label %22

18:                                               ; preds = %5
  %19 = load ptr, ptr %11, align 8, !tbaa !34
  %20 = load ptr, ptr %11, align 8, !tbaa !34
  %21 = call i64 @imemo_count_value(ptr noundef %20)
  call void @MEMO_V1_SET(ptr noundef %19, i64 noundef %21)
  call void @rb_iter_break() #23
  unreachable

22:                                               ; preds = %5
  %23 = load ptr, ptr %11, align 8, !tbaa !34
  call void @imemo_count_up(ptr noundef %23)
  call void @llvm.lifetime.end.p0(i64 8, ptr %11) #22
  ret i64 4
}