; Function Attrs: nounwind sspstrong uwtable
define internal noundef i64 @find_index_iter_i(i64 %0, i64 noundef %1, i32 noundef %2, ptr noundef %3, i64 %4) #0 {
  %6 = inttoptr i64 %1 to ptr
  %7 = tail call i64 @rb_yield_values2(i32 noundef %2, ptr noundef %3) #14
  %8 = and i64 %7, -5
  %.not = icmp eq i64 %8, 0
  br i1 %.not, label %11, label %9

9:                                                ; preds = %5
  %10 = tail call fastcc i64 @imemo_count_value(ptr noundef %6)
  tail call fastcc void @MEMO_V1_SET(ptr noundef %6, i64 noundef %10)
  tail call void @rb_iter_break() #15
  unreachable

11:                                               ; preds = %5
  tail call fastcc void @imemo_count_up(ptr noundef %6)
  ret i64 4
}